target datalayout = "e-m:e-p270:32:32-p271:32:32-p272:64:64-i64:64-i128:128-f80:128-n8:16:32:64-S128"
target triple = "x86_64-pc-linux-gnu"

%union.SourceSpan = type { i64 }
%struct.__va_list_tag = type { i32, i32, ptr, ptr }

; Function Attrs: nounwind uwtable
define dso_local void @sema_error_prev_at(i64 %0, ptr noundef %1, ...) #0 {
  %3 = alloca %union.SourceSpan, align 8
  %4 = alloca ptr, align 8
  %5 = alloca [1 x %struct.__va_list_tag], align 16
  %6 = alloca [4096 x i8], align 16
  %7 = alloca i64, align 8
  %8 = getelementptr inbounds %union.SourceSpan, ptr %3, i32 0, i32 0
  store i64 %0, ptr %8, align 8
  store ptr %1, ptr %4, align 8
  %9 = getelementptr inbounds [1 x %struct.__va_list_tag], ptr %5, i64 0, i64 0
  call void @llvm.va_start.p0(ptr %9)
  %10 = getelementptr inbounds [4096 x i8], ptr %6, i64 0, i64 0
  %11 = load ptr, ptr %4, align 8
  %12 = getelementptr inbounds [1 x %struct.__va_list_tag], ptr %5, i64 0, i64 0
  %13 = call i32 @vsnprintf(ptr noundef %10, i64 noundef 4095, ptr noundef %11, ptr noundef %12) #7
  %14 = sext i32 %13 to i64
  store i64 %14, ptr %7, align 8
  %15 = load i64, ptr %7, align 8
  %16 = icmp ule i64 %15, 4094
  br i1 %16, label %17, label %21

17:                                               ; preds = %2
  %18 = getelementptr inbounds [4096 x i8], ptr %6, i64 0, i64 0
  %19 = getelementptr inbounds %union.SourceSpan, ptr %3, i32 0, i32 0
  %20 = load i64, ptr %19, align 8
  call void @print_error(i64 %20, ptr noundef %18, i32 noundef 1)
  br label %21

21:                                               ; preds = %17, %2
  %22 = getelementptr inbounds [1 x %struct.__va_list_tag], ptr %5, i64 0, i64 0
  call void @llvm.va_end.p0(ptr %22)
  ret void
}