; Function Attrs: nounwind uwtable
define dso_local void @sema_error_prev_at(i64 %0, ptr nocapture noundef readonly %1, ...) local_unnamed_addr #0 {
  %3 = alloca [1 x %struct.__va_list_tag], align 16
  %4 = alloca [4096 x i8], align 16
  call void @llvm.va_start.p0(ptr nonnull %3)
  %5 = call i32 @vsnprintf(ptr noundef nonnull %4, i64 noundef 4095, ptr noundef %1, ptr noundef nonnull %3) #8
  %6 = icmp ult i32 %5, 4095
  br i1 %6, label %7, label %8

7:                                                ; preds = %2
  call fastcc void @print_error(i64 %0, ptr noundef nonnull %4, i32 noundef 1)
  br label %8

8:                                                ; preds = %7, %2
  call void @llvm.va_end.p0(ptr nonnull %3)
  ret void
}